(lp0
(i__main__
Vehiculos
p1
(dp2
S'acelera'
p3
I00
sS'enMarcha'
p4
I00
sS'modelo'
p5
S'MX5'
p6
sS'marca'
p7
S'Mazda'
p8
sS'frena'
p9
I00
sba(i__main__
Vehiculos
p10
(dp11
g3
I00
sg4
I00
sg5
S'Leon'
p12
sg7
S'Seat'
p13
sg9
I00
sba(i__main__
Vehiculos
p14
(dp15
g3
I00
sg4
I00
sg5
S'Megane'
p16
sg7
S'Reanult'
p17
sg9
I00
sba.